---
triple:          'arm64-apple-darwin'
binary-path:     '/Users/ricardoneftalygarciaking/Documents/ESCOM/vision/p1'
relocations:
  - { offsetInCU: 0x440E, offset: 0x440E, size: 0x8, addend: 0x0, symName: __ZNSt3__124__put_character_sequenceB7v160006IcNS_11char_traitsIcEEEERNS_13basic_ostreamIT_T0_EES7_PKS4_m, symObjAddr: 0x2614, symBinAddr: 0x1000043A4, symSize: 0x1F4 }
  - { offsetInCU: 0x72BC, offset: 0x72BC, size: 0x8, addend: 0x0, symName: __ZNSt3__1lsB7v160006IcNS_11char_traitsIcEENS_9allocatorIcEEEERNS_13basic_ostreamIT_T0_EES9_RKNS_12basic_stringIS6_S7_T1_EE, symObjAddr: 0x57C, symBinAddr: 0x10000230C, symSize: 0x4C }
  - { offsetInCU: 0x7314, offset: 0x7314, size: 0x8, addend: 0x0, symName: __ZNSt3__1lsB7v160006INS_11char_traitsIcEEEERNS_13basic_ostreamIcT_EES6_PKc, symObjAddr: 0x5C8, symBinAddr: 0x100002358, symSize: 0x48 }
  - { offsetInCU: 0x735A, offset: 0x735A, size: 0x8, addend: 0x0, symName: __ZNSt3__14endlB7v160006IcNS_11char_traitsIcEEEERNS_13basic_ostreamIT_T0_EES7_, symObjAddr: 0x63C, symBinAddr: 0x1000023CC, symSize: 0x58 }
  - { offsetInCU: 0x739A, offset: 0x739A, size: 0x8, addend: 0x0, symName: __ZNSt3__1rsB7v160006IcNS_11char_traitsIcEENS_9allocatorIcEEEERNS_13basic_istreamIT_T0_EES9_RNS_12basic_stringIS6_S7_T1_EE, symObjAddr: 0x6C0, symBinAddr: 0x100002450, symSize: 0x314 }
  - { offsetInCU: 0x7467, offset: 0x7467, size: 0x8, addend: 0x0, symName: __ZNSt3__1neB7v160006IcNS_11char_traitsIcEENS_9allocatorIcEEEEbRKNS_12basic_stringIT_T0_T1_EEPKS6_, symObjAddr: 0x9D4, symBinAddr: 0x100002764, symSize: 0x34 }
  - { offsetInCU: 0x7640, offset: 0x7640, size: 0x8, addend: 0x0, symName: __ZNSt3__13maxB7v160006IiEERKT_S3_S3_, symObjAddr: 0x15EC, symBinAddr: 0x10000337C, symSize: 0x2C }
  - { offsetInCU: 0x7683, offset: 0x7683, size: 0x8, addend: 0x0, symName: __ZNSt3__1lsB7v160006INS_11char_traitsIcEEEERNS_13basic_ostreamIcT_EES6_h, symObjAddr: 0x1618, symBinAddr: 0x1000033A8, symSize: 0x34 }
  - { offsetInCU: 0x76C9, offset: 0x76C9, size: 0x8, addend: 0x0, symName: __ZNSt3__119__debug_db_insert_cB7v160006INS_6vectorI3RGBNS_9allocatorIS2_EEEEEEvPT_, symObjAddr: 0x1A38, symBinAddr: 0x1000037C8, symSize: 0x10 }
  - { offsetInCU: 0x76FA, offset: 0x76FA, size: 0x8, addend: 0x0, symName: __ZNSt3__118__debug_db_erase_cB7v160006INS_6vectorI3RGBNS_9allocatorIS2_EEEEEEvPT_, symObjAddr: 0x1E30, symBinAddr: 0x100003BC0, symSize: 0x10 }
  - { offsetInCU: 0x772B, offset: 0x772B, size: 0x8, addend: 0x0, symName: __ZNSt3__112__to_addressB7v160006I3RGBEEPT_S3_, symObjAddr: 0x1FF0, symBinAddr: 0x100003D80, symSize: 0x14 }
  - { offsetInCU: 0x7760, offset: 0x7760, size: 0x8, addend: 0x0, symName: __ZNSt3__130__libcpp_is_constant_evaluatedB7v160006Ev, symObjAddr: 0x208C, symBinAddr: 0x100003E1C, symSize: 0xC }
  - { offsetInCU: 0x777D, offset: 0x777D, size: 0x8, addend: 0x0, symName: __ZNSt3__119__libcpp_deallocateB7v160006EPvmm, symObjAddr: 0x2098, symBinAddr: 0x100003E28, symSize: 0x30 }
  - { offsetInCU: 0x77C5, offset: 0x77C5, size: 0x8, addend: 0x0, symName: __ZNSt3__127__do_deallocate_handle_sizeB7v160006IJEEEvPvmDpT_, symObjAddr: 0x20C8, symBinAddr: 0x100003E58, symSize: 0x28 }
  - { offsetInCU: 0x7803, offset: 0x7803, size: 0x8, addend: 0x0, symName: __ZNSt3__124__libcpp_operator_deleteB7v160006IJPvEEEvDpT_, symObjAddr: 0x20F0, symBinAddr: 0x100003E80, symSize: 0x24 }
  - { offsetInCU: 0x7838, offset: 0x7838, size: 0x8, addend: 0x0, symName: __ZNSt3__112__to_addressB7v160006IKcEEPT_S3_, symObjAddr: 0x2444, symBinAddr: 0x1000041D4, symSize: 0x14 }
  - { offsetInCU: 0x78A0, offset: 0x78A0, size: 0x8, addend: 0x0, symName: __ZNSt3__116__pad_and_outputB7v160006IcNS_11char_traitsIcEEEENS_19ostreambuf_iteratorIT_T0_EES6_PKS4_S8_S8_RNS_8ios_baseES4_, symObjAddr: 0x286C, symBinAddr: 0x1000045FC, symSize: 0x248 }
  - { offsetInCU: 0x796F, offset: 0x796F, size: 0x8, addend: 0x0, symName: __ZNSt3__119__debug_db_insert_cB7v160006INS_12basic_stringIcNS_11char_traitsIcEENS_9allocatorIcEEEEEEvPT_, symObjAddr: 0x2CD4, symBinAddr: 0x100004A64, symSize: 0x10 }
  - { offsetInCU: 0x79A0, offset: 0x79A0, size: 0x8, addend: 0x0, symName: __ZNSt3__19use_facetB7v160006INS_5ctypeIcEEEERKT_RKNS_6localeE, symObjAddr: 0x2EF8, symBinAddr: 0x100004C88, symSize: 0x2C }
  - { offsetInCU: 0x7D80, offset: 0x7D80, size: 0x8, addend: 0x0, symName: __ZNSt3__118__constexpr_strlenB7v160006EPKc, symObjAddr: 0x2F5C, symBinAddr: 0x100004CEC, symSize: 0x24 }
  - { offsetInCU: 0x7DAC, offset: 0x7DAC, size: 0x8, addend: 0x0, symName: __ZNSt3__117__libcpp_allocateB7v160006Emm, symObjAddr: 0x3434, symBinAddr: 0x1000051C4, symSize: 0x28 }
  - { offsetInCU: 0x7DE9, offset: 0x7DE9, size: 0x8, addend: 0x0, symName: __ZNSt3__121__libcpp_operator_newB7v160006IJmEEEPvDpT_, symObjAddr: 0x3470, symBinAddr: 0x100005200, symSize: 0x24 }
  - { offsetInCU: 0x8023, offset: 0x8023, size: 0x8, addend: 0x0, symName: __ZNSt3__125__debug_db_invalidate_allB7v160006INS_12basic_stringIcNS_11char_traitsIcEENS_9allocatorIcEEEEEEvPT_, symObjAddr: 0x3848, symBinAddr: 0x1000055D8, symSize: 0x10 }
  - { offsetInCU: 0x8289, offset: 0x8289, size: 0x8, addend: 0x0, symName: __ZNSt3__1eqB7v160006IcNS_11char_traitsIcEENS_9allocatorIcEEEEbRKNS_12basic_stringIT_T0_T1_EEPKS6_, symObjAddr: 0x3A28, symBinAddr: 0x1000057B8, symSize: 0xC0 }
  - { offsetInCU: 0x82F0, offset: 0x82F0, size: 0x8, addend: 0x0, symName: __ZNSt3__13maxB7v160006ImEERKT_S3_S3_, symObjAddr: 0x4258, symBinAddr: 0x100005FE8, symSize: 0x2C }
  - { offsetInCU: 0x8333, offset: 0x8333, size: 0x8, addend: 0x0, symName: __ZNSt3__13minB7v160006ImEERKT_S3_S3_, symObjAddr: 0x4284, symBinAddr: 0x100006014, symSize: 0x2C }
  - { offsetInCU: 0x8376, offset: 0x8376, size: 0x8, addend: 0x0, symName: __ZNSt3__13minB7v160006ImNS_6__lessImmEEEERKT_S5_S5_T0_, symObjAddr: 0x42FC, symBinAddr: 0x10000608C, symSize: 0x54 }
  - { offsetInCU: 0x840B, offset: 0x840B, size: 0x8, addend: 0x0, symName: __ZNSt3__120__throw_length_errorB7v160006EPKc, symObjAddr: 0x43D0, symBinAddr: 0x100006160, symSize: 0x64 }
  - { offsetInCU: 0x8433, offset: 0x8433, size: 0x8, addend: 0x0, symName: __ZNSt3__13maxB7v160006ImNS_6__lessImmEEEERKT_S5_S5_T0_, symObjAddr: 0x44B4, symBinAddr: 0x100006244, symSize: 0x54 }
  - { offsetInCU: 0x848D, offset: 0x848D, size: 0x8, addend: 0x0, symName: __ZNSt3__119__allocate_at_leastB7v160006INS_9allocatorI3RGBEEEENS_19__allocation_resultINS_16allocator_traitsIT_E7pointerEEERS6_m, symObjAddr: 0x4624, symBinAddr: 0x1000063B4, symSize: 0x40 }
  - { offsetInCU: 0x84D0, offset: 0x84D0, size: 0x8, addend: 0x0, symName: __ZNSt3__142__uninitialized_allocator_move_if_noexceptB7v160006INS_9allocatorI3RGBEENS_16reverse_iteratorIPS2_EES6_S2_vEET1_RT_T0_SA_S7_, symObjAddr: 0x48E0, symBinAddr: 0x100006670, symSize: 0xE8 }
  - { offsetInCU: 0x854D, offset: 0x854D, size: 0x8, addend: 0x0, symName: __ZNSt3__14swapB7v160006IP3RGBEEvRT_S4_, symObjAddr: 0x4A14, symBinAddr: 0x1000067A4, symSize: 0x3C }
  - { offsetInCU: 0x859E, offset: 0x859E, size: 0x8, addend: 0x0, symName: __ZNSt3__125__debug_db_invalidate_allB7v160006INS_6vectorI3RGBNS_9allocatorIS2_EEEEEEvPT_, symObjAddr: 0x4B18, symBinAddr: 0x1000068A8, symSize: 0x10 }
  - { offsetInCU: 0x85CF, offset: 0x85CF, size: 0x8, addend: 0x0, symName: __ZNSt3__1neB7v160006IP3RGBS2_EEbRKNS_16reverse_iteratorIT_EERKNS3_IT0_EE, symObjAddr: 0x4B28, symBinAddr: 0x1000068B8, symSize: 0x48 }
  - { offsetInCU: 0x8640, offset: 0x8640, size: 0x8, addend: 0x0, symName: __ZNSt3__114__construct_atB7v160006I3RGBJS1_EPS1_EEPT_S4_DpOT0_, symObjAddr: 0x4B70, symBinAddr: 0x100006900, symSize: 0x34 }
  - { offsetInCU: 0x86B0, offset: 0x86B0, size: 0x8, addend: 0x0, symName: __ZNSt3__112__to_addressB7v160006INS_16reverse_iteratorIP3RGBEEvEENS_5decayIDTclsr19__to_address_helperIT_EE6__callclsr3stdE7declvalIRKS6_EEEEE4typeES8_, symObjAddr: 0x4BA4, symBinAddr: 0x100006934, symSize: 0x24 }
  - { offsetInCU: 0x86E6, offset: 0x86E6, size: 0x8, addend: 0x0, symName: __ZNSt3__14moveB7v160006INS_16reverse_iteratorIP3RGBEES4_EET0_T_S6_S5_, symObjAddr: 0x4C10, symBinAddr: 0x1000069A0, symSize: 0x78 }
  - { offsetInCU: 0x8769, offset: 0x8769, size: 0x8, addend: 0x0, symName: __ZNSt3__16__moveB7v160006INS_17_ClassicAlgPolicyENS_16reverse_iteratorIP3RGBEES5_S5_EENS_4pairIT0_T2_EES7_T1_S8_, symObjAddr: 0x4CF8, symBinAddr: 0x100006A88, symSize: 0x64 }
  - { offsetInCU: 0x87D5, offset: 0x87D5, size: 0x8, addend: 0x0, symName: __ZNSt3__123__dispatch_copy_or_moveB7v160006INS_17_ClassicAlgPolicyENS_11__move_loopIS1_EENS_14__move_trivialENS_16reverse_iteratorIP3RGBEES8_S8_EENS_4pairIT2_T4_EESA_T3_SB_, symObjAddr: 0x4D5C, symBinAddr: 0x100006AEC, symSize: 0x7C }
  - { offsetInCU: 0x8853, offset: 0x8853, size: 0x8, addend: 0x0, symName: __ZNSt3__121__unwrap_and_dispatchB7v160006INS_10__overloadINS_11__move_loopINS_17_ClassicAlgPolicyEEENS_14__move_trivialEEENS_16reverse_iteratorIP3RGBEESA_SA_Li0EEENS_4pairIT0_T2_EESC_T1_SD_, symObjAddr: 0x4DD8, symBinAddr: 0x100006B68, symSize: 0x12C }
  - { offsetInCU: 0x88E3, offset: 0x88E3, size: 0x8, addend: 0x0, symName: __ZNSt3__114__unwrap_rangeB7v160006INS_16reverse_iteratorIP3RGBEES4_EENS_4pairIT0_S6_EET_S8_, symObjAddr: 0x4F04, symBinAddr: 0x100006C94, symSize: 0x84 }
  - { offsetInCU: 0x8A37, offset: 0x8A37, size: 0x8, addend: 0x0, symName: __ZNSt3__113__unwrap_iterB7v160006INS_16reverse_iteratorIP3RGBEENS_18__unwrap_iter_implIS4_Lb0EEELi0EEEDTclsrT0_8__unwrapclsr3stdE7declvalIT_EEEES8_, symObjAddr: 0x5030, symBinAddr: 0x100006DC0, symSize: 0x44 }
  - { offsetInCU: 0x8A7B, offset: 0x8A7B, size: 0x8, addend: 0x0, symName: __ZNSt3__19make_pairB7v160006INS_16reverse_iteratorIP3RGBEES4_EENS_4pairINS_18__unwrap_ref_decayIT_E4typeENS6_IT0_E4typeEEEOS7_OSA_, symObjAddr: 0x5074, symBinAddr: 0x100006E04, symSize: 0x38 }
  - { offsetInCU: 0x8ACA, offset: 0x8ACA, size: 0x8, addend: 0x0, symName: __ZNSt3__114__rewrap_rangeB7v160006INS_16reverse_iteratorIP3RGBEES4_EET_S5_T0_, symObjAddr: 0x50AC, symBinAddr: 0x100006E3C, symSize: 0x5C }
  - { offsetInCU: 0x8B16, offset: 0x8B16, size: 0x8, addend: 0x0, symName: __ZNSt3__113__rewrap_iterB7v160006INS_16reverse_iteratorIP3RGBEES4_NS_18__unwrap_iter_implIS4_Lb0EEEEET_S7_T0_, symObjAddr: 0x5108, symBinAddr: 0x100006E98, symSize: 0x88 }
  - { offsetInCU: 0x8C1D, offset: 0x8C1D, size: 0x8, addend: 0x0, symName: __ZNSt3__13maxB7v160006IiNS_6__lessIiiEEEERKT_S5_S5_T0_, symObjAddr: 0x55DC, symBinAddr: 0x10000736C, symSize: 0x54 }
  - { offsetInCU: 0x8EA6, offset: 0x8EA6, size: 0x8, addend: 0x0, symName: __ZSt28__throw_bad_array_new_lengthB7v160006v, symObjAddr: 0x3400, symBinAddr: 0x100005190, symSize: 0x34 }
  - { offsetInCU: 0x9459, offset: 0x9459, size: 0x8, addend: 0x0, symName: __ZNSt3__16vectorI3RGBNS_9allocatorIS1_EEE26__swap_out_circular_bufferERNS_14__split_bufferIS1_RS3_EE, symObjAddr: 0x3F2C, symBinAddr: 0x100005CBC, symSize: 0x118 }
  - { offsetInCU: 0xB695, offset: 0xB695, size: 0x8, addend: 0x0, symName: __Z8load_ppmRKNSt3__112basic_stringIcNS_11char_traitsIcEENS_9allocatorIcEEEE, symObjAddr: 0x0, symBinAddr: 0x100001D90, symSize: 0x3A8 }
  - { offsetInCU: 0xB74B, offset: 0xB74B, size: 0x8, addend: 0x0, symName: __ZN8ImageRGBC1Ev, symObjAddr: 0x3A8, symBinAddr: 0x100002138, symSize: 0x2C }
  - { offsetInCU: 0xB898, offset: 0xB898, size: 0x8, addend: 0x0, symName: __ZNSt3__114basic_ifstreamIcNS_11char_traitsIcEEEC1ERKNS_12basic_stringIcS2_NS_9allocatorIcEEEEj, symObjAddr: 0x3D4, symBinAddr: 0x100002164, symSize: 0x17C }
  - { offsetInCU: 0xB8E2, offset: 0xB8E2, size: 0x8, addend: 0x0, symName: __ZNKSt3__114basic_ifstreamIcNS_11char_traitsIcEEE7is_openEv, symObjAddr: 0x550, symBinAddr: 0x1000022E0, symSize: 0x2C }
  - { offsetInCU: 0xB90A, offset: 0xB90A, size: 0x8, addend: 0x0, symName: __ZNSt3__113basic_ostreamIcNS_11char_traitsIcEEElsB7v160006EPFRS3_S4_E, symObjAddr: 0x610, symBinAddr: 0x1000023A0, symSize: 0x2C }
  - { offsetInCU: 0xB93E, offset: 0xB93E, size: 0x8, addend: 0x0, symName: __ZNSt3__112basic_stringIcNS_11char_traitsIcEENS_9allocatorIcEEEC1B7v160006Ev, symObjAddr: 0x694, symBinAddr: 0x100002424, symSize: 0x2C }
  - { offsetInCU: 0xB968, offset: 0xB968, size: 0x8, addend: 0x0, symName: __ZNSt3__114basic_ifstreamIcNS_11char_traitsIcEEE5closeEv, symObjAddr: 0xA08, symBinAddr: 0x100002798, symSize: 0x58 }
  - { offsetInCU: 0xB990, offset: 0xB990, size: 0x8, addend: 0x0, symName: __ZNSt3__16vectorI3RGBNS_9allocatorIS1_EEE6resizeEm, symObjAddr: 0xA60, symBinAddr: 0x1000027F0, symSize: 0x9C }
  - { offsetInCU: 0xB9D6, offset: 0xB9D6, size: 0x8, addend: 0x0, symName: __ZNSt3__16vectorI3RGBNS_9allocatorIS1_EEE4dataB7v160006Ev, symObjAddr: 0xAFC, symBinAddr: 0x10000288C, symSize: 0x28 }
  - { offsetInCU: 0xB9FC, offset: 0xB9FC, size: 0x8, addend: 0x0, symName: __ZNKSt3__16vectorI3RGBNS_9allocatorIS1_EEE4sizeB7v160006Ev, symObjAddr: 0xB24, symBinAddr: 0x1000028B4, symSize: 0x28 }
  - { offsetInCU: 0xBA27, offset: 0xBA27, size: 0x8, addend: 0x0, symName: __ZNSt3__114basic_ifstreamIcNS_11char_traitsIcEEED1Ev, symObjAddr: 0xB58, symBinAddr: 0x1000028E8, symSize: 0x70 }
  - { offsetInCU: 0xBA54, offset: 0xBA54, size: 0x8, addend: 0x0, symName: __ZN8ImageRGBD1Ev, symObjAddr: 0xBC8, symBinAddr: 0x100002958, symSize: 0x2C }
  - { offsetInCU: 0xBA7F, offset: 0xBA7F, size: 0x8, addend: 0x0, symName: __Z8save_ppmRK8ImageRGBRKNSt3__112basic_stringIcNS2_11char_traitsIcEENS2_9allocatorIcEEEE, symObjAddr: 0xBF4, symBinAddr: 0x100002984, symSize: 0x238 }
  - { offsetInCU: 0xBAE4, offset: 0xBAE4, size: 0x8, addend: 0x0, symName: __ZNSt3__114basic_ofstreamIcNS_11char_traitsIcEEEC1ERKNS_12basic_stringIcS2_NS_9allocatorIcEEEEj, symObjAddr: 0xE2C, symBinAddr: 0x100002BBC, symSize: 0x17C }
  - { offsetInCU: 0xBB2E, offset: 0xBB2E, size: 0x8, addend: 0x0, symName: __ZNKSt3__114basic_ofstreamIcNS_11char_traitsIcEEE7is_openEv, symObjAddr: 0xFA8, symBinAddr: 0x100002D38, symSize: 0x2C }
  - { offsetInCU: 0xBB56, offset: 0xBB56, size: 0x8, addend: 0x0, symName: __ZNKSt3__16vectorI3RGBNS_9allocatorIS1_EEE4dataB7v160006Ev, symObjAddr: 0xFD4, symBinAddr: 0x100002D64, symSize: 0x28 }
  - { offsetInCU: 0xBB7C, offset: 0xBB7C, size: 0x8, addend: 0x0, symName: __ZNSt3__114basic_ofstreamIcNS_11char_traitsIcEEE5closeEv, symObjAddr: 0xFFC, symBinAddr: 0x100002D8C, symSize: 0x58 }
  - { offsetInCU: 0xBBA9, offset: 0xBBA9, size: 0x8, addend: 0x0, symName: __ZNSt3__114basic_ofstreamIcNS_11char_traitsIcEEED1Ev, symObjAddr: 0x1054, symBinAddr: 0x100002DE4, symSize: 0x70 }
  - { offsetInCU: 0xBBD5, offset: 0xBBD5, size: 0x8, addend: 0x0, symName: __Z7add_ppmRK8ImageRGBS1_, symObjAddr: 0x10C4, symBinAddr: 0x100002E54, symSize: 0x1FC }
  - { offsetInCU: 0xBC67, offset: 0xBC67, size: 0x8, addend: 0x0, symName: __ZNKSt3__16vectorI3RGBNS_9allocatorIS1_EEEixB7v160006Em, symObjAddr: 0x12C0, symBinAddr: 0x100003050, symSize: 0x2C }
  - { offsetInCU: 0xBC9E, offset: 0xBC9E, size: 0x8, addend: 0x0, symName: __ZNSt3__16vectorI3RGBNS_9allocatorIS1_EEEixB7v160006Em, symObjAddr: 0x12EC, symBinAddr: 0x10000307C, symSize: 0x2C }
  - { offsetInCU: 0xBCD5, offset: 0xBCD5, size: 0x8, addend: 0x0, symName: __Z11add_paddingRK8ImageRGB, symObjAddr: 0x1318, symBinAddr: 0x1000030A8, symSize: 0x2D4 }
  - { offsetInCU: 0xBD52, offset: 0xBD52, size: 0x8, addend: 0x0, symName: _main, symObjAddr: 0x164C, symBinAddr: 0x1000033DC, symSize: 0x2D4 }
  - { offsetInCU: 0xBDCE, offset: 0xBDCE, size: 0x8, addend: 0x0, symName: __ZNSt3__112basic_stringIcNS_11char_traitsIcEENS_9allocatorIcEEEC1B7v160006IDnEEPKc, symObjAddr: 0x1920, symBinAddr: 0x1000036B0, symSize: 0x34 }
  - { offsetInCU: 0xBE0C, offset: 0xBE0C, size: 0x8, addend: 0x0, symName: __ZN8ImageRGBC2Ev, symObjAddr: 0x1954, symBinAddr: 0x1000036E4, symSize: 0x30 }
  - { offsetInCU: 0xBE38, offset: 0xBE38, size: 0x8, addend: 0x0, symName: __ZNSt3__16vectorI3RGBNS_9allocatorIS1_EEEC1B7v160006Ev, symObjAddr: 0x1984, symBinAddr: 0x100003714, symSize: 0x2C }
  - { offsetInCU: 0xBE62, offset: 0xBE62, size: 0x8, addend: 0x0, symName: __ZNSt3__16vectorI3RGBNS_9allocatorIS1_EEEC2B7v160006Ev, symObjAddr: 0x19B0, symBinAddr: 0x100003740, symSize: 0x4C }
  - { offsetInCU: 0xBE96, offset: 0xBE96, size: 0x8, addend: 0x0, symName: __ZNSt3__117__compressed_pairIP3RGBNS_9allocatorIS1_EEEC1B7v160006IDnNS_18__default_init_tagEEEOT_OT0_, symObjAddr: 0x19FC, symBinAddr: 0x10000378C, symSize: 0x3C }
  - { offsetInCU: 0xBEEE, offset: 0xBEEE, size: 0x8, addend: 0x0, symName: __ZNSt3__117__compressed_pairIP3RGBNS_9allocatorIS1_EEEC2B7v160006IDnNS_18__default_init_tagEEEOT_OT0_, symObjAddr: 0x1A48, symBinAddr: 0x1000037D8, symSize: 0x40 }
  - { offsetInCU: 0xBF46, offset: 0xBF46, size: 0x8, addend: 0x0, symName: __ZNSt3__122__compressed_pair_elemIP3RGBLi0ELb0EEC2B7v160006IDnvEEOT_, symObjAddr: 0x1A88, symBinAddr: 0x100003818, symSize: 0x1C }
  - { offsetInCU: 0xBF88, offset: 0xBF88, size: 0x8, addend: 0x0, symName: __ZNSt3__122__compressed_pair_elemINS_9allocatorI3RGBEELi1ELb1EEC2B7v160006ENS_18__default_init_tagE, symObjAddr: 0x1AA4, symBinAddr: 0x100003834, symSize: 0x2C }
  - { offsetInCU: 0xBFBD, offset: 0xBFBD, size: 0x8, addend: 0x0, symName: __ZNSt3__19allocatorI3RGBEC2B7v160006Ev, symObjAddr: 0x1AD0, symBinAddr: 0x100003860, symSize: 0x2C }
  - { offsetInCU: 0xBFE7, offset: 0xBFE7, size: 0x8, addend: 0x0, symName: __ZNSt3__116__non_trivial_ifILb1ENS_9allocatorI3RGBEEEC2B7v160006Ev, symObjAddr: 0x1AFC, symBinAddr: 0x10000388C, symSize: 0x14 }
  - { offsetInCU: 0xC011, offset: 0xC011, size: 0x8, addend: 0x0, symName: __ZNSt3__114basic_ifstreamIcNS_11char_traitsIcEEED2Ev, symObjAddr: 0x1B10, symBinAddr: 0x1000038A0, symSize: 0x9C }
  - { offsetInCU: 0xC04B, offset: 0xC04B, size: 0x8, addend: 0x0, symName: __ZTv0_n24_NSt3__114basic_ifstreamIcNS_11char_traitsIcEEED1Ev, symObjAddr: 0x1BAC, symBinAddr: 0x10000393C, symSize: 0x28 }
  - { offsetInCU: 0xC062, offset: 0xC062, size: 0x8, addend: 0x0, symName: __ZN8ImageRGBD2Ev, symObjAddr: 0x1BD4, symBinAddr: 0x100003964, symSize: 0x30 }
  - { offsetInCU: 0xC08E, offset: 0xC08E, size: 0x8, addend: 0x0, symName: __ZNSt3__16vectorI3RGBNS_9allocatorIS1_EEED1B7v160006Ev, symObjAddr: 0x1C04, symBinAddr: 0x100003994, symSize: 0x2C }
  - { offsetInCU: 0xC0B8, offset: 0xC0B8, size: 0x8, addend: 0x0, symName: __ZNSt3__16vectorI3RGBNS_9allocatorIS1_EEED2B7v160006Ev, symObjAddr: 0x1C30, symBinAddr: 0x1000039C0, symSize: 0x3C }
  - { offsetInCU: 0xC0E2, offset: 0xC0E2, size: 0x8, addend: 0x0, symName: __ZNSt3__16vectorI3RGBNS_9allocatorIS1_EEE16__destroy_vectorC1ERS4_, symObjAddr: 0x1C6C, symBinAddr: 0x1000039FC, symSize: 0x34 }
  - { offsetInCU: 0xC11B, offset: 0xC11B, size: 0x8, addend: 0x0, symName: __ZNSt3__16vectorI3RGBNS_9allocatorIS1_EEE16__destroy_vectorclB7v160006Ev, symObjAddr: 0x1CA0, symBinAddr: 0x100003A30, symSize: 0x9C }
  - { offsetInCU: 0xC141, offset: 0xC141, size: 0x8, addend: 0x0, symName: __ZNSt3__16vectorI3RGBNS_9allocatorIS1_EEE16__destroy_vectorC2ERS4_, symObjAddr: 0x1D3C, symBinAddr: 0x100003ACC, symSize: 0x20 }
  - { offsetInCU: 0xC17A, offset: 0xC17A, size: 0x8, addend: 0x0, symName: __ZNKSt3__16vectorI3RGBNS_9allocatorIS1_EEE17__annotate_deleteB7v160006Ev, symObjAddr: 0x1D5C, symBinAddr: 0x100003AEC, symSize: 0xD4 }
  - { offsetInCU: 0xC1A0, offset: 0xC1A0, size: 0x8, addend: 0x0, symName: __ZNSt3__16vectorI3RGBNS_9allocatorIS1_EEE7__clearB7v160006Ev, symObjAddr: 0x1E40, symBinAddr: 0x100003BD0, symSize: 0x28 }
  - { offsetInCU: 0xC1C6, offset: 0xC1C6, size: 0x8, addend: 0x0, symName: __ZNSt3__116allocator_traitsINS_9allocatorI3RGBEEE10deallocateB7v160006ERS3_PS2_m, symObjAddr: 0x1E68, symBinAddr: 0x100003BF8, symSize: 0x34 }
  - { offsetInCU: 0xC208, offset: 0xC208, size: 0x8, addend: 0x0, symName: __ZNSt3__16vectorI3RGBNS_9allocatorIS1_EEE7__allocB7v160006Ev, symObjAddr: 0x1E9C, symBinAddr: 0x100003C2C, symSize: 0x28 }
  - { offsetInCU: 0xC22E, offset: 0xC22E, size: 0x8, addend: 0x0, symName: __ZNKSt3__16vectorI3RGBNS_9allocatorIS1_EEE8capacityB7v160006Ev, symObjAddr: 0x1EC4, symBinAddr: 0x100003C54, symSize: 0x40 }
  - { offsetInCU: 0xC254, offset: 0xC254, size: 0x8, addend: 0x0, symName: __ZNKSt3__16vectorI3RGBNS_9allocatorIS1_EEE31__annotate_contiguous_containerB7v160006EPKvS6_S6_S6_, symObjAddr: 0x1F04, symBinAddr: 0x100003C94, symSize: 0x20 }
  - { offsetInCU: 0xC2A6, offset: 0xC2A6, size: 0x8, addend: 0x0, symName: __ZNSt3__16vectorI3RGBNS_9allocatorIS1_EEE22__base_destruct_at_endB7v160006EPS1_, symObjAddr: 0x1F24, symBinAddr: 0x100003CB4, symSize: 0xA0 }
  - { offsetInCU: 0xC2EA, offset: 0xC2EA, size: 0x8, addend: 0x0, symName: __ZNSt3__116allocator_traitsINS_9allocatorI3RGBEEE7destroyB7v160006IS2_vEEvRS3_PT_, symObjAddr: 0x1FC4, symBinAddr: 0x100003D54, symSize: 0x2C }
  - { offsetInCU: 0xC327, offset: 0xC327, size: 0x8, addend: 0x0, symName: __ZNSt3__19allocatorI3RGBE7destroyB7v160006EPS1_, symObjAddr: 0x2004, symBinAddr: 0x100003D94, symSize: 0x14 }
  - { offsetInCU: 0xC35B, offset: 0xC35B, size: 0x8, addend: 0x0, symName: __ZNSt3__19allocatorI3RGBE10deallocateB7v160006EPS1_m, symObjAddr: 0x2018, symBinAddr: 0x100003DA8, symSize: 0x74 }
  - { offsetInCU: 0xC39D, offset: 0xC39D, size: 0x8, addend: 0x0, symName: __ZNSt3__117__compressed_pairIP3RGBNS_9allocatorIS1_EEE6secondB7v160006Ev, symObjAddr: 0x2114, symBinAddr: 0x100003EA4, symSize: 0x24 }
  - { offsetInCU: 0xC3C3, offset: 0xC3C3, size: 0x8, addend: 0x0, symName: __ZNSt3__122__compressed_pair_elemINS_9allocatorI3RGBEELi1ELb1EE5__getB7v160006Ev, symObjAddr: 0x2138, symBinAddr: 0x100003EC8, symSize: 0x14 }
  - { offsetInCU: 0xC3E9, offset: 0xC3E9, size: 0x8, addend: 0x0, symName: __ZNKSt3__16vectorI3RGBNS_9allocatorIS1_EEE9__end_capB7v160006Ev, symObjAddr: 0x214C, symBinAddr: 0x100003EDC, symSize: 0x28 }
  - { offsetInCU: 0xC40F, offset: 0xC40F, size: 0x8, addend: 0x0, symName: __ZNKSt3__117__compressed_pairIP3RGBNS_9allocatorIS1_EEE5firstB7v160006Ev, symObjAddr: 0x2174, symBinAddr: 0x100003F04, symSize: 0x24 }
  - { offsetInCU: 0xC435, offset: 0xC435, size: 0x8, addend: 0x0, symName: __ZNKSt3__122__compressed_pair_elemIP3RGBLi0ELb0EE5__getB7v160006Ev, symObjAddr: 0x2198, symBinAddr: 0x100003F28, symSize: 0x14 }
  - { offsetInCU: 0xC45B, offset: 0xC45B, size: 0x8, addend: 0x0, symName: __ZNSt3__114basic_ofstreamIcNS_11char_traitsIcEEED2Ev, symObjAddr: 0x21AC, symBinAddr: 0x100003F3C, symSize: 0x9C }
  - { offsetInCU: 0xC495, offset: 0xC495, size: 0x8, addend: 0x0, symName: __ZTv0_n24_NSt3__114basic_ofstreamIcNS_11char_traitsIcEEED1Ev, symObjAddr: 0x2248, symBinAddr: 0x100003FD8, symSize: 0x28 }
  - { offsetInCU: 0xC4AC, offset: 0xC4AC, size: 0x8, addend: 0x0, symName: __ZNSt3__19basic_iosIcNS_11char_traitsIcEEEC2B7v160006Ev, symObjAddr: 0x2270, symBinAddr: 0x100004000, symSize: 0x44 }
  - { offsetInCU: 0xC4D6, offset: 0xC4D6, size: 0x8, addend: 0x0, symName: __ZNSt3__113basic_istreamIcNS_11char_traitsIcEEEC2B7v160006EPNS_15basic_streambufIcS2_EE, symObjAddr: 0x22B4, symBinAddr: 0x100004044, symSize: 0x64 }
  - { offsetInCU: 0xC51B, offset: 0xC51B, size: 0x8, addend: 0x0, symName: __ZNSt3__113basic_filebufIcNS_11char_traitsIcEEE4openERKNS_12basic_stringIcS2_NS_9allocatorIcEEEEj, symObjAddr: 0x2318, symBinAddr: 0x1000040A8, symSize: 0x44 }
  - { offsetInCU: 0xC55F, offset: 0xC55F, size: 0x8, addend: 0x0, symName: __ZNSt3__19basic_iosIcNS_11char_traitsIcEEE8setstateB7v160006Ej, symObjAddr: 0x235C, symBinAddr: 0x1000040EC, symSize: 0x2C }
  - { offsetInCU: 0xC594, offset: 0xC594, size: 0x8, addend: 0x0, symName: __ZNSt3__18ios_baseC2B7v160006Ev, symObjAddr: 0x2388, symBinAddr: 0x100004118, symSize: 0x24 }
  - { offsetInCU: 0xC5BE, offset: 0xC5BE, size: 0x8, addend: 0x0, symName: __ZNSt3__19basic_iosIcNS_11char_traitsIcEEE4initB7v160006EPNS_15basic_streambufIcS2_EE, symObjAddr: 0x23AC, symBinAddr: 0x10000413C, symSize: 0x44 }
  - { offsetInCU: 0xC5F5, offset: 0xC5F5, size: 0x8, addend: 0x0, symName: __ZNSt3__111char_traitsIcE3eofEv, symObjAddr: 0x23F0, symBinAddr: 0x100004180, symSize: 0x8 }
  - { offsetInCU: 0xC609, offset: 0xC609, size: 0x8, addend: 0x0, symName: __ZNKSt3__112basic_stringIcNS_11char_traitsIcEENS_9allocatorIcEEE5c_strB7v160006Ev, symObjAddr: 0x23F8, symBinAddr: 0x100004188, symSize: 0x24 }
  - { offsetInCU: 0xC62F, offset: 0xC62F, size: 0x8, addend: 0x0, symName: __ZNKSt3__112basic_stringIcNS_11char_traitsIcEENS_9allocatorIcEEE4dataB7v160006Ev, symObjAddr: 0x241C, symBinAddr: 0x1000041AC, symSize: 0x28 }
  - { offsetInCU: 0xC655, offset: 0xC655, size: 0x8, addend: 0x0, symName: __ZNKSt3__112basic_stringIcNS_11char_traitsIcEENS_9allocatorIcEEE13__get_pointerB7v160006Ev, symObjAddr: 0x2458, symBinAddr: 0x1000041E8, symSize: 0x54 }
  - { offsetInCU: 0xC67B, offset: 0xC67B, size: 0x8, addend: 0x0, symName: __ZNKSt3__112basic_stringIcNS_11char_traitsIcEENS_9allocatorIcEEE9__is_longB7v160006Ev, symObjAddr: 0x24AC, symBinAddr: 0x10000423C, symSize: 0x74 }
  - { offsetInCU: 0xC6A1, offset: 0xC6A1, size: 0x8, addend: 0x0, symName: __ZNKSt3__112basic_stringIcNS_11char_traitsIcEENS_9allocatorIcEEE18__get_long_pointerB7v160006Ev, symObjAddr: 0x2520, symBinAddr: 0x1000042B0, symSize: 0x28 }
  - { offsetInCU: 0xC6C7, offset: 0xC6C7, size: 0x8, addend: 0x0, symName: __ZNKSt3__112basic_stringIcNS_11char_traitsIcEENS_9allocatorIcEEE19__get_short_pointerB7v160006Ev, symObjAddr: 0x2548, symBinAddr: 0x1000042D8, symSize: 0x28 }
  - { offsetInCU: 0xC6ED, offset: 0xC6ED, size: 0x8, addend: 0x0, symName: __ZNKSt3__117__compressed_pairINS_12basic_stringIcNS_11char_traitsIcEENS_9allocatorIcEEE5__repES5_E5firstB7v160006Ev, symObjAddr: 0x2570, symBinAddr: 0x100004300, symSize: 0x24 }
  - { offsetInCU: 0xC713, offset: 0xC713, size: 0x8, addend: 0x0, symName: __ZNKSt3__122__compressed_pair_elemINS_12basic_stringIcNS_11char_traitsIcEENS_9allocatorIcEEE5__repELi0ELb0EE5__getB7v160006Ev, symObjAddr: 0x2594, symBinAddr: 0x100004324, symSize: 0x14 }
  - { offsetInCU: 0xC739, offset: 0xC739, size: 0x8, addend: 0x0, symName: __ZNSt3__114pointer_traitsIPKcE10pointer_toB7v160006ERS1_, symObjAddr: 0x25A8, symBinAddr: 0x100004338, symSize: 0x14 }
  - { offsetInCU: 0xC75C, offset: 0xC75C, size: 0x8, addend: 0x0, symName: __ZNSt3__18ios_base8setstateB7v160006Ej, symObjAddr: 0x25BC, symBinAddr: 0x10000434C, symSize: 0x34 }
  - { offsetInCU: 0xC793, offset: 0xC793, size: 0x8, addend: 0x0, symName: __ZNKSt3__113basic_filebufIcNS_11char_traitsIcEEE7is_openEv, symObjAddr: 0x25F0, symBinAddr: 0x100004380, symSize: 0x24 }
  - { offsetInCU: 0xC7BB, offset: 0xC7BB, size: 0x8, addend: 0x0, symName: __ZNSt3__111char_traitsIcE6lengthEPKc, symObjAddr: 0x2808, symBinAddr: 0x100004598, symSize: 0x48 }
  - { offsetInCU: 0xC7FC, offset: 0xC7FC, size: 0x8, addend: 0x0, symName: __ZNKSt3__113basic_ostreamIcNS_11char_traitsIcEEE6sentrycvbB7v160006Ev, symObjAddr: 0x2850, symBinAddr: 0x1000045E0, symSize: 0x1C }
  - { offsetInCU: 0xC822, offset: 0xC822, size: 0x8, addend: 0x0, symName: __ZNSt3__119ostreambuf_iteratorIcNS_11char_traitsIcEEEC1B7v160006ERNS_13basic_ostreamIcS2_EE, symObjAddr: 0x2AB4, symBinAddr: 0x100004844, symSize: 0x34 }
  - { offsetInCU: 0xC85A, offset: 0xC85A, size: 0x8, addend: 0x0, symName: __ZNKSt3__18ios_base5flagsB7v160006Ev, symObjAddr: 0x2AE8, symBinAddr: 0x100004878, symSize: 0x18 }
  - { offsetInCU: 0xC882, offset: 0xC882, size: 0x8, addend: 0x0, symName: __ZNKSt3__19basic_iosIcNS_11char_traitsIcEEE4fillB7v160006Ev, symObjAddr: 0x2B00, symBinAddr: 0x100004890, symSize: 0x64 }
  - { offsetInCU: 0xC8AA, offset: 0xC8AA, size: 0x8, addend: 0x0, symName: __ZNKSt3__119ostreambuf_iteratorIcNS_11char_traitsIcEEE6failedB7v160006Ev, symObjAddr: 0x2B64, symBinAddr: 0x1000048F4, symSize: 0x24 }
  - { offsetInCU: 0xC8D0, offset: 0xC8D0, size: 0x8, addend: 0x0, symName: __ZNKSt3__18ios_base5widthB7v160006Ev, symObjAddr: 0x2B88, symBinAddr: 0x100004918, symSize: 0x18 }
  - { offsetInCU: 0xC8F8, offset: 0xC8F8, size: 0x8, addend: 0x0, symName: __ZNSt3__115basic_streambufIcNS_11char_traitsIcEEE5sputnB7v160006EPKcl, symObjAddr: 0x2BA0, symBinAddr: 0x100004930, symSize: 0x3C }
  - { offsetInCU: 0xC93A, offset: 0xC93A, size: 0x8, addend: 0x0, symName: __ZNSt3__112basic_stringIcNS_11char_traitsIcEENS_9allocatorIcEEEC1B7v160006Emc, symObjAddr: 0x2BDC, symBinAddr: 0x10000496C, symSize: 0x3C }
  - { offsetInCU: 0xC982, offset: 0xC982, size: 0x8, addend: 0x0, symName: __ZNSt3__18ios_base5widthB7v160006El, symObjAddr: 0x2C18, symBinAddr: 0x1000049A8, symSize: 0x2C }
  - { offsetInCU: 0xC9C8, offset: 0xC9C8, size: 0x8, addend: 0x0, symName: __ZNSt3__112basic_stringIcNS_11char_traitsIcEENS_9allocatorIcEEEC2B7v160006Emc, symObjAddr: 0x2C44, symBinAddr: 0x1000049D4, symSize: 0x54 }
  - { offsetInCU: 0xCA10, offset: 0xCA10, size: 0x8, addend: 0x0, symName: __ZNSt3__117__compressed_pairINS_12basic_stringIcNS_11char_traitsIcEENS_9allocatorIcEEE5__repES5_EC1B7v160006INS_18__default_init_tagESA_EEOT_OT0_, symObjAddr: 0x2C98, symBinAddr: 0x100004A28, symSize: 0x3C }
  - { offsetInCU: 0xCA68, offset: 0xCA68, size: 0x8, addend: 0x0, symName: __ZNSt3__117__compressed_pairINS_12basic_stringIcNS_11char_traitsIcEENS_9allocatorIcEEE5__repES5_EC2B7v160006INS_18__default_init_tagESA_EEOT_OT0_, symObjAddr: 0x2CE4, symBinAddr: 0x100004A74, symSize: 0x3C }
  - { offsetInCU: 0xCAC0, offset: 0xCAC0, size: 0x8, addend: 0x0, symName: __ZNSt3__122__compressed_pair_elemINS_12basic_stringIcNS_11char_traitsIcEENS_9allocatorIcEEE5__repELi0ELb0EEC2B7v160006ENS_18__default_init_tagE, symObjAddr: 0x2D20, symBinAddr: 0x100004AB0, symSize: 0x14 }
  - { offsetInCU: 0xCAF5, offset: 0xCAF5, size: 0x8, addend: 0x0, symName: __ZNSt3__122__compressed_pair_elemINS_9allocatorIcEELi1ELb1EEC2B7v160006ENS_18__default_init_tagE, symObjAddr: 0x2D34, symBinAddr: 0x100004AC4, symSize: 0x2C }
  - { offsetInCU: 0xCB2A, offset: 0xCB2A, size: 0x8, addend: 0x0, symName: __ZNSt3__19allocatorIcEC2B7v160006Ev, symObjAddr: 0x2D60, symBinAddr: 0x100004AF0, symSize: 0x2C }
  - { offsetInCU: 0xCB54, offset: 0xCB54, size: 0x8, addend: 0x0, symName: __ZNSt3__116__non_trivial_ifILb1ENS_9allocatorIcEEEC2B7v160006Ev, symObjAddr: 0x2D8C, symBinAddr: 0x100004B1C, symSize: 0x14 }
  - { offsetInCU: 0xCB7E, offset: 0xCB7E, size: 0x8, addend: 0x0, symName: __ZNSt3__119ostreambuf_iteratorIcNS_11char_traitsIcEEEC2B7v160006ERNS_13basic_ostreamIcS2_EE, symObjAddr: 0x2DA0, symBinAddr: 0x100004B30, symSize: 0x68 }
  - { offsetInCU: 0xCBB6, offset: 0xCBB6, size: 0x8, addend: 0x0, symName: __ZNKSt3__19basic_iosIcNS_11char_traitsIcEEE5rdbufB7v160006Ev, symObjAddr: 0x2E08, symBinAddr: 0x100004B98, symSize: 0x24 }
  - { offsetInCU: 0xCBDE, offset: 0xCBDE, size: 0x8, addend: 0x0, symName: __ZNKSt3__18ios_base5rdbufB7v160006Ev, symObjAddr: 0x2E2C, symBinAddr: 0x100004BBC, symSize: 0x18 }
  - { offsetInCU: 0xCC04, offset: 0xCC04, size: 0x8, addend: 0x0, symName: __ZNSt3__111char_traitsIcE11eq_int_typeEii, symObjAddr: 0x2E44, symBinAddr: 0x100004BD4, symSize: 0x28 }
  - { offsetInCU: 0xCC35, offset: 0xCC35, size: 0x8, addend: 0x0, symName: __ZNKSt3__19basic_iosIcNS_11char_traitsIcEEE5widenB7v160006Ec, symObjAddr: 0x2E6C, symBinAddr: 0x100004BFC, symSize: 0x8C }
  - { offsetInCU: 0xCC99, offset: 0xCC99, size: 0x8, addend: 0x0, symName: __ZNKSt3__15ctypeIcE5widenB7v160006Ec, symObjAddr: 0x2F24, symBinAddr: 0x100004CB4, symSize: 0x38 }
  - { offsetInCU: 0xCCCE, offset: 0xCCCE, size: 0x8, addend: 0x0, symName: __ZNKSt3__112basic_stringIcNS_11char_traitsIcEENS_9allocatorIcEEE4sizeB7v160006Ev, symObjAddr: 0x2F80, symBinAddr: 0x100004D10, symSize: 0x54 }
  - { offsetInCU: 0xCCF4, offset: 0xCCF4, size: 0x8, addend: 0x0, symName: __ZNKSt3__112basic_stringIcNS_11char_traitsIcEENS_9allocatorIcEEE15__get_long_sizeB7v160006Ev, symObjAddr: 0x2FD4, symBinAddr: 0x100004D64, symSize: 0x28 }
  - { offsetInCU: 0xCD1A, offset: 0xCD1A, size: 0x8, addend: 0x0, symName: __ZNKSt3__112basic_stringIcNS_11char_traitsIcEENS_9allocatorIcEEE16__get_short_sizeB7v160006Ev, symObjAddr: 0x2FFC, symBinAddr: 0x100004D8C, symSize: 0x34 }
  - { offsetInCU: 0xCD40, offset: 0xCD40, size: 0x8, addend: 0x0, symName: __ZNSt3__112basic_stringIcNS_11char_traitsIcEENS_9allocatorIcEEEC2B7v160006Ev, symObjAddr: 0x3030, symBinAddr: 0x100004DC0, symSize: 0x44 }
  - { offsetInCU: 0xCD6A, offset: 0xCD6A, size: 0x8, addend: 0x0, symName: __ZNSt3__112basic_stringIcNS_11char_traitsIcEENS_9allocatorIcEEE14__default_initB7v160006Ev, symObjAddr: 0x3074, symBinAddr: 0x100004E04, symSize: 0xB0 }
  - { offsetInCU: 0xCDBD, offset: 0xCDBD, size: 0x8, addend: 0x0, symName: __ZNSt3__117__compressed_pairINS_12basic_stringIcNS_11char_traitsIcEENS_9allocatorIcEEE5__repES5_E5firstB7v160006Ev, symObjAddr: 0x3124, symBinAddr: 0x100004EB4, symSize: 0x24 }
  - { offsetInCU: 0xCDE3, offset: 0xCDE3, size: 0x8, addend: 0x0, symName: __ZNSt3__112basic_stringIcNS_11char_traitsIcEENS_9allocatorIcEEE11__recommendB7v160006Em, symObjAddr: 0x3148, symBinAddr: 0x100004ED8, symSize: 0x9C }
  - { offsetInCU: 0xCE16, offset: 0xCE16, size: 0x8, addend: 0x0, symName: __ZNSt3__116allocator_traitsINS_9allocatorIcEEE8allocateB7v160006ERS2_m, symObjAddr: 0x31E4, symBinAddr: 0x100004F74, symSize: 0x2C }
  - { offsetInCU: 0xCE49, offset: 0xCE49, size: 0x8, addend: 0x0, symName: __ZNSt3__112basic_stringIcNS_11char_traitsIcEENS_9allocatorIcEEE7__allocB7v160006Ev, symObjAddr: 0x3210, symBinAddr: 0x100004FA0, symSize: 0x24 }
  - { offsetInCU: 0xCE6F, offset: 0xCE6F, size: 0x8, addend: 0x0, symName: __ZNSt3__112basic_stringIcNS_11char_traitsIcEENS_9allocatorIcEEE16__begin_lifetimeB7v160006EPcm, symObjAddr: 0x3234, symBinAddr: 0x100004FC4, symSize: 0x14 }
  - { offsetInCU: 0xCEA2, offset: 0xCEA2, size: 0x8, addend: 0x0, symName: __ZNSt3__112basic_stringIcNS_11char_traitsIcEENS_9allocatorIcEEE18__set_long_pointerB7v160006EPc, symObjAddr: 0x3248, symBinAddr: 0x100004FD8, symSize: 0x38 }
  - { offsetInCU: 0xCED7, offset: 0xCED7, size: 0x8, addend: 0x0, symName: __ZNSt3__112basic_stringIcNS_11char_traitsIcEENS_9allocatorIcEEE14__set_long_capB7v160006Em, symObjAddr: 0x3280, symBinAddr: 0x100005010, symSize: 0x70 }
  - { offsetInCU: 0xCF0C, offset: 0xCF0C, size: 0x8, addend: 0x0, symName: __ZNSt3__112basic_stringIcNS_11char_traitsIcEENS_9allocatorIcEEE15__set_long_sizeB7v160006Em, symObjAddr: 0x32F0, symBinAddr: 0x100005080, symSize: 0x38 }
  - { offsetInCU: 0xCF41, offset: 0xCF41, size: 0x8, addend: 0x0, symName: __ZNSt3__122__compressed_pair_elemINS_12basic_stringIcNS_11char_traitsIcEENS_9allocatorIcEEE5__repELi0ELb0EE5__getB7v160006Ev, symObjAddr: 0x3328, symBinAddr: 0x1000050B8, symSize: 0x14 }
  - { offsetInCU: 0xCF67, offset: 0xCF67, size: 0x8, addend: 0x0, symName: __ZNSt3__112basic_stringIcNS_11char_traitsIcEENS_9allocatorIcEEE10__align_itB7v160006ILm16EEEmm, symObjAddr: 0x333C, symBinAddr: 0x1000050CC, symSize: 0x1C }
  - { offsetInCU: 0xCF95, offset: 0xCF95, size: 0x8, addend: 0x0, symName: __ZNSt3__19allocatorIcE8allocateB7v160006Em, symObjAddr: 0x3358, symBinAddr: 0x1000050E8, symSize: 0x84 }
  - { offsetInCU: 0xCFD3, offset: 0xCFD3, size: 0x8, addend: 0x0, symName: __ZNSt3__116allocator_traitsINS_9allocatorIcEEE8max_sizeB7v160006IS2_vEEmRKS2_, symObjAddr: 0x33DC, symBinAddr: 0x10000516C, symSize: 0x24 }
  - { offsetInCU: 0xD001, offset: 0xD001, size: 0x8, addend: 0x0, symName: __ZNKSt3__19allocatorIcE8max_sizeB7v160006Ev, symObjAddr: 0x345C, symBinAddr: 0x1000051EC, symSize: 0x14 }
  - { offsetInCU: 0xD027, offset: 0xD027, size: 0x8, addend: 0x0, symName: __ZNSt3__117__compressed_pairINS_12basic_stringIcNS_11char_traitsIcEENS_9allocatorIcEEE5__repES5_E6secondB7v160006Ev, symObjAddr: 0x3494, symBinAddr: 0x100005224, symSize: 0x24 }
  - { offsetInCU: 0xD04D, offset: 0xD04D, size: 0x8, addend: 0x0, symName: __ZNSt3__122__compressed_pair_elemINS_9allocatorIcEELi1ELb1EE5__getB7v160006Ev, symObjAddr: 0x34B8, symBinAddr: 0x100005248, symSize: 0x14 }
  - { offsetInCU: 0xD091, offset: 0xD091, size: 0x8, addend: 0x0, symName: __ZNKSt3__113basic_istreamIcNS_11char_traitsIcEEE6sentrycvbB7v160006Ev, symObjAddr: 0x34CC, symBinAddr: 0x10000525C, symSize: 0x1C }
  - { offsetInCU: 0xD0B7, offset: 0xD0B7, size: 0x8, addend: 0x0, symName: __ZNSt3__112basic_stringIcNS_11char_traitsIcEENS_9allocatorIcEEE5clearB7v160006Ev, symObjAddr: 0x34E8, symBinAddr: 0x100005278, symSize: 0x9C }
  - { offsetInCU: 0xD0DF, offset: 0xD0DF, size: 0x8, addend: 0x0, symName: __ZNKSt3__112basic_stringIcNS_11char_traitsIcEENS_9allocatorIcEEE8max_sizeB7v160006Ev, symObjAddr: 0x3584, symBinAddr: 0x100005314, symSize: 0xAC }
  - { offsetInCU: 0xD132, offset: 0xD132, size: 0x8, addend: 0x0, symName: __ZNSt3__114numeric_limitsIlE3maxB7v160006Ev, symObjAddr: 0x3630, symBinAddr: 0x1000053C0, symSize: 0x14 }
  - { offsetInCU: 0xD146, offset: 0xD146, size: 0x8, addend: 0x0, symName: __ZNSt3__115basic_streambufIcNS_11char_traitsIcEEE5sgetcB7v160006Ev, symObjAddr: 0x3644, symBinAddr: 0x1000053D4, symSize: 0x70 }
  - { offsetInCU: 0xD16C, offset: 0xD16C, size: 0x8, addend: 0x0, symName: __ZNSt3__111char_traitsIcE12to_char_typeEi, symObjAddr: 0x36B4, symBinAddr: 0x100005444, symSize: 0x18 }
  - { offsetInCU: 0xD18F, offset: 0xD18F, size: 0x8, addend: 0x0, symName: __ZNKSt3__15ctypeIcE2isB7v160006Ejc, symObjAddr: 0x36CC, symBinAddr: 0x10000545C, symSize: 0x7C }
  - { offsetInCU: 0xD1D3, offset: 0xD1D3, size: 0x8, addend: 0x0, symName: __ZNSt3__115basic_streambufIcNS_11char_traitsIcEEE6sbumpcB7v160006Ev, symObjAddr: 0x3748, symBinAddr: 0x1000054D8, symSize: 0x78 }
  - { offsetInCU: 0xD1F9, offset: 0xD1F9, size: 0x8, addend: 0x0, symName: __ZNSt3__18ios_base18__setstate_nothrowB7v160006Ej, symObjAddr: 0x37C0, symBinAddr: 0x100005550, symSize: 0x64 }
  - { offsetInCU: 0xD22E, offset: 0xD22E, size: 0x8, addend: 0x0, symName: __ZNKSt3__19basic_iosIcNS_11char_traitsIcEEE10exceptionsB7v160006Ev, symObjAddr: 0x3824, symBinAddr: 0x1000055B4, symSize: 0x24 }
  - { offsetInCU: 0xD254, offset: 0xD254, size: 0x8, addend: 0x0, symName: __ZNSt3__111char_traitsIcE6assignERcRKc, symObjAddr: 0x3858, symBinAddr: 0x1000055E8, symSize: 0x24 }
  - { offsetInCU: 0xD285, offset: 0xD285, size: 0x8, addend: 0x0, symName: __ZNSt3__112basic_stringIcNS_11char_traitsIcEENS_9allocatorIcEEE18__get_long_pointerB7v160006Ev, symObjAddr: 0x387C, symBinAddr: 0x10000560C, symSize: 0x28 }
  - { offsetInCU: 0xD2AB, offset: 0xD2AB, size: 0x8, addend: 0x0, symName: __ZNSt3__112basic_stringIcNS_11char_traitsIcEENS_9allocatorIcEEE19__get_short_pointerB7v160006Ev, symObjAddr: 0x38A4, symBinAddr: 0x100005634, symSize: 0x28 }
  - { offsetInCU: 0xD2D1, offset: 0xD2D1, size: 0x8, addend: 0x0, symName: __ZNSt3__112basic_stringIcNS_11char_traitsIcEENS_9allocatorIcEEE16__set_short_sizeB7v160006Em, symObjAddr: 0x38CC, symBinAddr: 0x10000565C, symSize: 0x78 }
  - { offsetInCU: 0xD306, offset: 0xD306, size: 0x8, addend: 0x0, symName: __ZNSt3__114pointer_traitsIPcE10pointer_toB7v160006ERc, symObjAddr: 0x3944, symBinAddr: 0x1000056D4, symSize: 0x14 }
  - { offsetInCU: 0xD329, offset: 0xD329, size: 0x8, addend: 0x0, symName: __ZNKSt3__112basic_stringIcNS_11char_traitsIcEENS_9allocatorIcEEE7__allocB7v160006Ev, symObjAddr: 0x3958, symBinAddr: 0x1000056E8, symSize: 0x24 }
  - { offsetInCU: 0xD34F, offset: 0xD34F, size: 0x8, addend: 0x0, symName: __ZNSt3__114numeric_limitsImE3maxB7v160006Ev, symObjAddr: 0x397C, symBinAddr: 0x10000570C, symSize: 0x14 }
  - { offsetInCU: 0xD363, offset: 0xD363, size: 0x8, addend: 0x0, symName: __ZNKSt3__117__compressed_pairINS_12basic_stringIcNS_11char_traitsIcEENS_9allocatorIcEEE5__repES5_E6secondB7v160006Ev, symObjAddr: 0x3990, symBinAddr: 0x100005720, symSize: 0x24 }
  - { offsetInCU: 0xD389, offset: 0xD389, size: 0x8, addend: 0x0, symName: __ZNKSt3__122__compressed_pair_elemINS_9allocatorIcEELi1ELb1EE5__getB7v160006Ev, symObjAddr: 0x39B4, symBinAddr: 0x100005744, symSize: 0x14 }
  - { offsetInCU: 0xD3AF, offset: 0xD3AF, size: 0x8, addend: 0x0, symName: __ZNSt3__123__libcpp_numeric_limitsImLb1EE3maxB7v160006Ev, symObjAddr: 0x39C8, symBinAddr: 0x100005758, symSize: 0x8 }
  - { offsetInCU: 0xD3C3, offset: 0xD3C3, size: 0x8, addend: 0x0, symName: __ZNSt3__123__libcpp_numeric_limitsIlLb1EE3maxB7v160006Ev, symObjAddr: 0x39D0, symBinAddr: 0x100005760, symSize: 0x8 }
  - { offsetInCU: 0xD3D7, offset: 0xD3D7, size: 0x8, addend: 0x0, symName: __ZNSt3__111char_traitsIcE11to_int_typeEc, symObjAddr: 0x39D8, symBinAddr: 0x100005768, symSize: 0x14 }
  - { offsetInCU: 0xD3F9, offset: 0xD3F9, size: 0x8, addend: 0x0, symName: __Z7isasciii, symObjAddr: 0x39EC, symBinAddr: 0x10000577C, symSize: 0x24 }
  - { offsetInCU: 0xD426, offset: 0xD426, size: 0x8, addend: 0x0, symName: __ZNKSt3__18ios_base10exceptionsB7v160006Ev, symObjAddr: 0x3A10, symBinAddr: 0x1000057A0, symSize: 0x18 }
  - { offsetInCU: 0xD44E, offset: 0xD44E, size: 0x8, addend: 0x0, symName: __ZNSt3__16vectorI3RGBNS_9allocatorIS1_EEE8__appendEm, symObjAddr: 0x3AE8, symBinAddr: 0x100005878, symSize: 0x110 }
  - { offsetInCU: 0xD4A9, offset: 0xD4A9, size: 0x8, addend: 0x0, symName: __ZNSt3__16vectorI3RGBNS_9allocatorIS1_EEE17__destruct_at_endB7v160006EPS1_, symObjAddr: 0x3BF8, symBinAddr: 0x100005988, symSize: 0x88 }
  - { offsetInCU: 0xD4ED, offset: 0xD4ED, size: 0x8, addend: 0x0, symName: __ZNSt3__16vectorI3RGBNS_9allocatorIS1_EEE9__end_capB7v160006Ev, symObjAddr: 0x3C80, symBinAddr: 0x100005A10, symSize: 0x28 }
  - { offsetInCU: 0xD513, offset: 0xD513, size: 0x8, addend: 0x0, symName: __ZNSt3__16vectorI3RGBNS_9allocatorIS1_EEE18__construct_at_endEm, symObjAddr: 0x3CA8, symBinAddr: 0x100005A38, symSize: 0xD0 }
  - { offsetInCU: 0xD586, offset: 0xD586, size: 0x8, addend: 0x0, symName: __ZNKSt3__16vectorI3RGBNS_9allocatorIS1_EEE11__recommendB7v160006Em, symObjAddr: 0x3D78, symBinAddr: 0x100005B08, symSize: 0xB4 }
  - { offsetInCU: 0xD5DB, offset: 0xD5DB, size: 0x8, addend: 0x0, symName: __ZNSt3__114__split_bufferI3RGBRNS_9allocatorIS1_EEEC1EmmS4_, symObjAddr: 0x3E2C, symBinAddr: 0x100005BBC, symSize: 0x44 }
  - { offsetInCU: 0xD631, offset: 0xD631, size: 0x8, addend: 0x0, symName: __ZNSt3__114__split_bufferI3RGBRNS_9allocatorIS1_EEE18__construct_at_endEm, symObjAddr: 0x3E70, symBinAddr: 0x100005C00, symSize: 0xBC }
  - { offsetInCU: 0xD674, offset: 0xD674, size: 0x8, addend: 0x0, symName: __ZNSt3__114__split_bufferI3RGBRNS_9allocatorIS1_EEED1Ev, symObjAddr: 0x4044, symBinAddr: 0x100005DD4, symSize: 0x2C }
  - { offsetInCU: 0xD6A0, offset: 0xD6A0, size: 0x8, addend: 0x0, symName: __ZNSt3__117__compressed_pairIP3RGBNS_9allocatorIS1_EEE5firstB7v160006Ev, symObjAddr: 0x4070, symBinAddr: 0x100005E00, symSize: 0x24 }
  - { offsetInCU: 0xD6C6, offset: 0xD6C6, size: 0x8, addend: 0x0, symName: __ZNSt3__122__compressed_pair_elemIP3RGBLi0ELb0EE5__getB7v160006Ev, symObjAddr: 0x4094, symBinAddr: 0x100005E24, symSize: 0x14 }
  - { offsetInCU: 0xD705, offset: 0xD705, size: 0x8, addend: 0x0, symName: __ZNSt3__16vectorI3RGBNS_9allocatorIS1_EEE21_ConstructTransactionC1B7v160006ERS4_m, symObjAddr: 0x40A8, symBinAddr: 0x100005E38, symSize: 0x3C }
  - { offsetInCU: 0xD74D, offset: 0xD74D, size: 0x8, addend: 0x0, symName: __ZNSt3__116allocator_traitsINS_9allocatorI3RGBEEE9constructB7v160006IS2_JEvEEvRS3_PT_DpOT0_, symObjAddr: 0x40E4, symBinAddr: 0x100005E74, symSize: 0x2C }
  - { offsetInCU: 0xD78F, offset: 0xD78F, size: 0x8, addend: 0x0, symName: __ZNSt3__16vectorI3RGBNS_9allocatorIS1_EEE21_ConstructTransactionD1B7v160006Ev, symObjAddr: 0x4110, symBinAddr: 0x100005EA0, symSize: 0x2C }
  - { offsetInCU: 0xD7B9, offset: 0xD7B9, size: 0x8, addend: 0x0, symName: __ZNSt3__16vectorI3RGBNS_9allocatorIS1_EEE21_ConstructTransactionC2B7v160006ERS4_m, symObjAddr: 0x413C, symBinAddr: 0x100005ECC, symSize: 0x4C }
  - { offsetInCU: 0xD801, offset: 0xD801, size: 0x8, addend: 0x0, symName: __ZNSt3__19allocatorI3RGBE9constructB7v160006IS1_JEEEvPT_DpOT0_, symObjAddr: 0x4188, symBinAddr: 0x100005F18, symSize: 0x20 }
  - { offsetInCU: 0xD843, offset: 0xD843, size: 0x8, addend: 0x0, symName: __ZNSt3__16vectorI3RGBNS_9allocatorIS1_EEE21_ConstructTransactionD2B7v160006Ev, symObjAddr: 0x41A8, symBinAddr: 0x100005F38, symSize: 0x20 }
  - { offsetInCU: 0xD86D, offset: 0xD86D, size: 0x8, addend: 0x0, symName: __ZNKSt3__16vectorI3RGBNS_9allocatorIS1_EEE8max_sizeEv, symObjAddr: 0x41C8, symBinAddr: 0x100005F58, symSize: 0x74 }
  - { offsetInCU: 0xD895, offset: 0xD895, size: 0x8, addend: 0x0, symName: __ZNKSt3__16vectorI3RGBNS_9allocatorIS1_EEE20__throw_length_errorB7v160006Ev, symObjAddr: 0x423C, symBinAddr: 0x100005FCC, symSize: 0x1C }
  - { offsetInCU: 0xD8C5, offset: 0xD8C5, size: 0x8, addend: 0x0, symName: __ZNSt3__116allocator_traitsINS_9allocatorI3RGBEEE8max_sizeB7v160006IS3_vEEmRKS3_, symObjAddr: 0x42B0, symBinAddr: 0x100006040, symSize: 0x24 }
  - { offsetInCU: 0xD8F3, offset: 0xD8F3, size: 0x8, addend: 0x0, symName: __ZNKSt3__16vectorI3RGBNS_9allocatorIS1_EEE7__allocB7v160006Ev, symObjAddr: 0x42D4, symBinAddr: 0x100006064, symSize: 0x28 }
  - { offsetInCU: 0xD92D, offset: 0xD92D, size: 0x8, addend: 0x0, symName: __ZNKSt3__16__lessImmEclB7v160006ERKmS3_, symObjAddr: 0x4350, symBinAddr: 0x1000060E0, symSize: 0x34 }
  - { offsetInCU: 0xD96F, offset: 0xD96F, size: 0x8, addend: 0x0, symName: __ZNKSt3__19allocatorI3RGBE8max_sizeB7v160006Ev, symObjAddr: 0x4384, symBinAddr: 0x100006114, symSize: 0x14 }
  - { offsetInCU: 0xD995, offset: 0xD995, size: 0x8, addend: 0x0, symName: __ZNKSt3__117__compressed_pairIP3RGBNS_9allocatorIS1_EEE6secondB7v160006Ev, symObjAddr: 0x4398, symBinAddr: 0x100006128, symSize: 0x24 }
  - { offsetInCU: 0xD9BB, offset: 0xD9BB, size: 0x8, addend: 0x0, symName: __ZNKSt3__122__compressed_pair_elemINS_9allocatorI3RGBEELi1ELb1EE5__getB7v160006Ev, symObjAddr: 0x43BC, symBinAddr: 0x10000614C, symSize: 0x14 }
  - { offsetInCU: 0xD9E1, offset: 0xD9E1, size: 0x8, addend: 0x0, symName: __ZNSt12length_errorC1B7v160006EPKc, symObjAddr: 0x4434, symBinAddr: 0x1000061C4, symSize: 0x34 }
  - { offsetInCU: 0xDA19, offset: 0xDA19, size: 0x8, addend: 0x0, symName: __ZNSt12length_errorC2B7v160006EPKc, symObjAddr: 0x4468, symBinAddr: 0x1000061F8, symSize: 0x4C }
  - { offsetInCU: 0xDA51, offset: 0xDA51, size: 0x8, addend: 0x0, symName: __ZNSt3__114__split_bufferI3RGBRNS_9allocatorIS1_EEEC2EmmS4_, symObjAddr: 0x4508, symBinAddr: 0x100006298, symSize: 0xE0 }
  - { offsetInCU: 0xDAC5, offset: 0xDAC5, size: 0x8, addend: 0x0, symName: __ZNSt3__117__compressed_pairIP3RGBRNS_9allocatorIS1_EEEC1B7v160006IDnS5_EEOT_OT0_, symObjAddr: 0x45E8, symBinAddr: 0x100006378, symSize: 0x3C }
  - { offsetInCU: 0xDB1D, offset: 0xDB1D, size: 0x8, addend: 0x0, symName: __ZNSt3__114__split_bufferI3RGBRNS_9allocatorIS1_EEE7__allocB7v160006Ev, symObjAddr: 0x4664, symBinAddr: 0x1000063F4, symSize: 0x28 }
  - { offsetInCU: 0xDB43, offset: 0xDB43, size: 0x8, addend: 0x0, symName: __ZNSt3__114__split_bufferI3RGBRNS_9allocatorIS1_EEE9__end_capB7v160006Ev, symObjAddr: 0x468C, symBinAddr: 0x10000641C, symSize: 0x28 }
  - { offsetInCU: 0xDB69, offset: 0xDB69, size: 0x8, addend: 0x0, symName: __ZNSt3__117__compressed_pairIP3RGBRNS_9allocatorIS1_EEEC2B7v160006IDnS5_EEOT_OT0_, symObjAddr: 0x46B4, symBinAddr: 0x100006444, symSize: 0x48 }
  - { offsetInCU: 0xDBC1, offset: 0xDBC1, size: 0x8, addend: 0x0, symName: __ZNSt3__122__compressed_pair_elemIRNS_9allocatorI3RGBEELi1ELb0EEC2B7v160006IS4_vEEOT_, symObjAddr: 0x46FC, symBinAddr: 0x10000648C, symSize: 0x20 }
  - { offsetInCU: 0xDC03, offset: 0xDC03, size: 0x8, addend: 0x0, symName: __ZNSt3__19allocatorI3RGBE8allocateB7v160006Em, symObjAddr: 0x471C, symBinAddr: 0x1000064AC, symSize: 0x8C }
  - { offsetInCU: 0xDC37, offset: 0xDC37, size: 0x8, addend: 0x0, symName: __ZNSt3__117__compressed_pairIP3RGBRNS_9allocatorIS1_EEE6secondB7v160006Ev, symObjAddr: 0x47A8, symBinAddr: 0x100006538, symSize: 0x28 }
  - { offsetInCU: 0xDC5D, offset: 0xDC5D, size: 0x8, addend: 0x0, symName: __ZNSt3__122__compressed_pair_elemIRNS_9allocatorI3RGBEELi1ELb0EE5__getB7v160006Ev, symObjAddr: 0x47D0, symBinAddr: 0x100006560, symSize: 0x18 }
  - { offsetInCU: 0xDC83, offset: 0xDC83, size: 0x8, addend: 0x0, symName: __ZNSt3__117__compressed_pairIP3RGBRNS_9allocatorIS1_EEE5firstB7v160006Ev, symObjAddr: 0x47E8, symBinAddr: 0x100006578, symSize: 0x24 }
  - { offsetInCU: 0xDCB3, offset: 0xDCB3, size: 0x8, addend: 0x0, symName: __ZNSt3__114__split_bufferI3RGBRNS_9allocatorIS1_EEE21_ConstructTransactionC1B7v160006EPPS1_m, symObjAddr: 0x480C, symBinAddr: 0x10000659C, symSize: 0x3C }
  - { offsetInCU: 0xDCF9, offset: 0xDCF9, size: 0x8, addend: 0x0, symName: __ZNSt3__114__split_bufferI3RGBRNS_9allocatorIS1_EEE21_ConstructTransactionD1B7v160006Ev, symObjAddr: 0x4848, symBinAddr: 0x1000065D8, symSize: 0x2C }
  - { offsetInCU: 0xDD23, offset: 0xDD23, size: 0x8, addend: 0x0, symName: __ZNSt3__114__split_bufferI3RGBRNS_9allocatorIS1_EEE21_ConstructTransactionC2B7v160006EPPS1_m, symObjAddr: 0x4874, symBinAddr: 0x100006604, symSize: 0x4C }
  - { offsetInCU: 0xDD69, offset: 0xDD69, size: 0x8, addend: 0x0, symName: __ZNSt3__114__split_bufferI3RGBRNS_9allocatorIS1_EEE21_ConstructTransactionD2B7v160006Ev, symObjAddr: 0x48C0, symBinAddr: 0x100006650, symSize: 0x20 }
  - { offsetInCU: 0xDD93, offset: 0xDD93, size: 0x8, addend: 0x0, symName: __ZNSt3__116reverse_iteratorIP3RGBEC1B7v160006ES2_, symObjAddr: 0x49C8, symBinAddr: 0x100006758, symSize: 0x34 }
  - { offsetInCU: 0xDDCB, offset: 0xDDCB, size: 0x8, addend: 0x0, symName: __ZNKSt3__116reverse_iteratorIP3RGBE4baseB7v160006Ev, symObjAddr: 0x49FC, symBinAddr: 0x10000678C, symSize: 0x18 }
  - { offsetInCU: 0xDDF1, offset: 0xDDF1, size: 0x8, addend: 0x0, symName: __ZNKSt3__16vectorI3RGBNS_9allocatorIS1_EEE14__annotate_newB7v160006Em, symObjAddr: 0x4A50, symBinAddr: 0x1000067E0, symSize: 0xC8 }
  - { offsetInCU: 0xDE26, offset: 0xDE26, size: 0x8, addend: 0x0, symName: __ZNKSt3__116reverse_iteratorIP3RGBEdeB7v160006Ev, symObjAddr: 0x4BC8, symBinAddr: 0x100006958, symSize: 0x28 }
  - { offsetInCU: 0xDE5A, offset: 0xDE5A, size: 0x8, addend: 0x0, symName: __ZNSt3__116reverse_iteratorIP3RGBEppB7v160006Ev, symObjAddr: 0x4BF0, symBinAddr: 0x100006980, symSize: 0x20 }
  - { offsetInCU: 0xDE85, offset: 0xDE85, size: 0x8, addend: 0x0, symName: __ZNSt3__119__to_address_helperINS_16reverse_iteratorIP3RGBEEvE6__callB7v160006ERKS4_, symObjAddr: 0x4C88, symBinAddr: 0x100006A18, symSize: 0x4C }
  - { offsetInCU: 0xDEA8, offset: 0xDEA8, size: 0x8, addend: 0x0, symName: __ZNKSt3__116reverse_iteratorIP3RGBEptB7v160006Ev, symObjAddr: 0x4CD4, symBinAddr: 0x100006A64, symSize: 0x24 }
  - { offsetInCU: 0xDEF1, offset: 0xDEF1, size: 0x8, addend: 0x0, symName: __ZNKSt3__111__move_loopINS_17_ClassicAlgPolicyEEclB7v160006INS_16reverse_iteratorIP3RGBEES7_S7_EENS_4pairIT_T1_EES9_T0_SA_, symObjAddr: 0x4F88, symBinAddr: 0x100006D18, symSize: 0xA8 }
  - { offsetInCU: 0xDF61, offset: 0xDF61, size: 0x8, addend: 0x0, symName: __ZNSt3__18_IterOpsINS_17_ClassicAlgPolicyEE11__iter_moveB7v160006IRNS_16reverse_iteratorIP3RGBEEEENS_9enable_ifIXsr12is_referenceIDTdeclsr3stdE7declvalIRT_EEEEE5valueEDTclsr3stdE4movedeclsr3stdE7declvalISB_EEEEE4typeEOSA_, symObjAddr: 0x5190, symBinAddr: 0x100006F20, symSize: 0x28 }
  - { offsetInCU: 0xDF8D, offset: 0xDF8D, size: 0x8, addend: 0x0, symName: __ZNSt3__18_IterOpsINS_17_ClassicAlgPolicyEE25__validate_iter_referenceB7v160006IRNS_16reverse_iteratorIP3RGBEEEEvv, symObjAddr: 0x51B8, symBinAddr: 0x100006F48, symSize: 0x4 }
  - { offsetInCU: 0xDFAB, offset: 0xDFAB, size: 0x8, addend: 0x0, symName: __ZNSt3__118__unwrap_iter_implINS_16reverse_iteratorIP3RGBEELb0EE8__unwrapB7v160006ES4_, symObjAddr: 0x51BC, symBinAddr: 0x100006F4C, symSize: 0x24 }
  - { offsetInCU: 0xDFCE, offset: 0xDFCE, size: 0x8, addend: 0x0, symName: __ZNSt3__14pairINS_16reverse_iteratorIP3RGBEES4_EC1B7v160006ERKS4_S7_, symObjAddr: 0x51E0, symBinAddr: 0x100006F70, symSize: 0x3C }
  - { offsetInCU: 0xE014, offset: 0xE014, size: 0x8, addend: 0x0, symName: __ZNSt3__14pairINS_16reverse_iteratorIP3RGBEES4_EC2B7v160006ERKS4_S7_, symObjAddr: 0x521C, symBinAddr: 0x100006FAC, symSize: 0x34 }
  - { offsetInCU: 0xE05A, offset: 0xE05A, size: 0x8, addend: 0x0, symName: __ZNSt3__118__unwrap_iter_implINS_16reverse_iteratorIP3RGBEELb0EE8__rewrapB7v160006ES4_S4_, symObjAddr: 0x5250, symBinAddr: 0x100006FE0, symSize: 0x2C }
  - { offsetInCU: 0xE088, offset: 0xE088, size: 0x8, addend: 0x0, symName: __ZNSt3__116reverse_iteratorIP3RGBEC2B7v160006ES2_, symObjAddr: 0x527C, symBinAddr: 0x10000700C, symSize: 0x28 }
  - { offsetInCU: 0xE0C0, offset: 0xE0C0, size: 0x8, addend: 0x0, symName: __ZNSt3__114__split_bufferI3RGBRNS_9allocatorIS1_EEED2Ev, symObjAddr: 0x52A4, symBinAddr: 0x100007034, symSize: 0x80 }
  - { offsetInCU: 0xE0EC, offset: 0xE0EC, size: 0x8, addend: 0x0, symName: __ZNSt3__114__split_bufferI3RGBRNS_9allocatorIS1_EEE5clearB7v160006Ev, symObjAddr: 0x5324, symBinAddr: 0x1000070B4, symSize: 0x28 }
  - { offsetInCU: 0xE112, offset: 0xE112, size: 0x8, addend: 0x0, symName: __ZNKSt3__114__split_bufferI3RGBRNS_9allocatorIS1_EEE8capacityB7v160006Ev, symObjAddr: 0x534C, symBinAddr: 0x1000070DC, symSize: 0x40 }
  - { offsetInCU: 0xE138, offset: 0xE138, size: 0x8, addend: 0x0, symName: __ZNSt3__114__split_bufferI3RGBRNS_9allocatorIS1_EEE17__destruct_at_endB7v160006EPS1_, symObjAddr: 0x538C, symBinAddr: 0x10000711C, symSize: 0x2C }
  - { offsetInCU: 0xE16C, offset: 0xE16C, size: 0x8, addend: 0x0, symName: __ZNSt3__114__split_bufferI3RGBRNS_9allocatorIS1_EEE17__destruct_at_endB7v160006EPS1_NS_17integral_constantIbLb0EEE, symObjAddr: 0x53B8, symBinAddr: 0x100007148, symSize: 0x94 }
  - { offsetInCU: 0xE1AD, offset: 0xE1AD, size: 0x8, addend: 0x0, symName: __ZNKSt3__114__split_bufferI3RGBRNS_9allocatorIS1_EEE9__end_capB7v160006Ev, symObjAddr: 0x544C, symBinAddr: 0x1000071DC, symSize: 0x28 }
  - { offsetInCU: 0xE1D3, offset: 0xE1D3, size: 0x8, addend: 0x0, symName: __ZNKSt3__117__compressed_pairIP3RGBRNS_9allocatorIS1_EEE5firstB7v160006Ev, symObjAddr: 0x5474, symBinAddr: 0x100007204, symSize: 0x24 }
  - { offsetInCU: 0xE1F9, offset: 0xE1F9, size: 0x8, addend: 0x0, symName: __ZNSt3__16vectorI3RGBNS_9allocatorIS1_EEE27__invalidate_iterators_pastB7v160006EPS1_, symObjAddr: 0x5498, symBinAddr: 0x100007228, symSize: 0x14 }
  - { offsetInCU: 0xE230, offset: 0xE230, size: 0x8, addend: 0x0, symName: __ZNKSt3__16vectorI3RGBNS_9allocatorIS1_EEE17__annotate_shrinkB7v160006Em, symObjAddr: 0x54AC, symBinAddr: 0x10000723C, symSize: 0xD0 }
  - { offsetInCU: 0xE265, offset: 0xE265, size: 0x8, addend: 0x0, symName: __ZNSt3__113basic_ostreamIcNS_11char_traitsIcEEEC2B7v160006EPNS_15basic_streambufIcS2_EE, symObjAddr: 0x557C, symBinAddr: 0x10000730C, symSize: 0x60 }
  - { offsetInCU: 0xE2B9, offset: 0xE2B9, size: 0x8, addend: 0x0, symName: __ZNKSt3__16__lessIiiEclB7v160006ERKiS3_, symObjAddr: 0x5630, symBinAddr: 0x1000073C0, symSize: 0x34 }
  - { offsetInCU: 0xE2FB, offset: 0xE2FB, size: 0x8, addend: 0x0, symName: __ZNSt3__112basic_stringIcNS_11char_traitsIcEENS_9allocatorIcEEEC2B7v160006IDnEEPKc, symObjAddr: 0x5664, symBinAddr: 0x1000073F4, symSize: 0x60 }
...
